; ModuleID = '19/472.c'
source_filename = "19/472.c"
target datalayout = "e-m:e-p270:32:32-p271:32:32-p272:64:64-i64:64-f80:128-n8:16:32:64-S128"
target triple = "x86_64-pc-linux-gnu"

@.str = private unnamed_addr constant [2 x i8] zeroinitializer, align 1

; Function Attrs: noinline nounwind uwtable
define dso_local void @main() #0 {
  %1 = alloca i8*, align 8
  %2 = alloca i8*, align 8
  %3 = alloca i8*, align 8
  %4 = alloca i8*, align 8
  %5 = alloca i8*, align 8
  %6 = alloca i8*, align 8
  %7 = alloca i32, align 4
  %8 = alloca i32, align 4
  %9 = alloca i32, align 4
  %10 = alloca i32, align 4
  %11 = alloca i32, align 4
  %12 = alloca i32, align 4
  %13 = alloca i32, align 4
  %14 = alloca i32, align 4
  store i32 0, i32* %8, align 4
  store i32 1, i32* %12, align 4
  store i32 0, i32* %13, align 4
  store i32 0, i32* %14, align 4
  %15 = call noalias i8* @malloc(i64 100) #4
  store i8* %15, i8** %1, align 8
  %16 = call noalias i8* @malloc(i64 100) #4
  store i8* %16, i8** %2, align 8
  %17 = call noalias i8* @malloc(i64 100) #4
  store i8* %17, i8** %3, align 8
  %18 = call noalias i8* @malloc(i64 200) #4
  store i8* %18, i8** %5, align 8
  %19 = call noalias i8* @malloc(i64 200) #4
  store i8* %19, i8** %6, align 8
  %20 = load i8*, i8** %1, align 8
  %21 = call i32 (i8*, ...) bitcast (i32 (...)* @gets to i32 (i8*, ...)*)(i8* %20)
  %22 = load i8*, i8** %2, align 8
  %23 = call i32 (i8*, ...) bitcast (i32 (...)* @gets to i32 (i8*, ...)*)(i8* %22)
  %24 = load i8*, i8** %3, align 8
  %25 = call i32 (i8*, ...) bitcast (i32 (...)* @gets to i32 (i8*, ...)*)(i8* %24)
  %26 = load i8*, i8** %1, align 8
  %27 = call i64 @strlen(i8* %26) #5
  %28 = trunc i64 %27 to i32
  store i32 %28, i32* %9, align 4
  %29 = load i8*, i8** %3, align 8
  %30 = call i64 @strlen(i8* %29) #5
  %31 = trunc i64 %30 to i32
  store i32 %31, i32* %10, align 4
  store i32 0, i32* %7, align 4
  br label %32

32:                                               ; preds = %116, %0
  %33 = load i32, i32* %7, align 4
  %34 = load i32, i32* %9, align 4
  %35 = icmp slt i32 %33, %34
  br i1 %35, label %36, label %119

36:                                               ; preds = %32
  %37 = load i8*, i8** %1, align 8
  %38 = load i32, i32* %7, align 4
  %39 = sext i32 %38 to i64
  %40 = getelementptr inbounds i8, i8* %37, i64 %39
  %41 = load i8, i8* %40, align 1
  %42 = sext i8 %41 to i32
  %43 = icmp ne i32 %42, 32
  br i1 %43, label %44, label %61

44:                                               ; preds = %36
  %45 = load i32, i32* %12, align 4
  %46 = icmp eq i32 %45, 1
  br i1 %46, label %47, label %49

47:                                               ; preds = %44
  %48 = load i32, i32* %7, align 4
  store i32 %48, i32* %13, align 4
  store i32 0, i32* %12, align 4
  br label %49

49:                                               ; preds = %47, %44
  %50 = load i8*, i8** %1, align 8
  %51 = load i32, i32* %7, align 4
  %52 = sext i32 %51 to i64
  %53 = getelementptr inbounds i8, i8* %50, i64 %52
  %54 = load i8, i8* %53, align 1
  %55 = load i8*, i8** %5, align 8
  %56 = load i32, i32* %8, align 4
  %57 = sext i32 %56 to i64
  %58 = getelementptr inbounds i8, i8* %55, i64 %57
  store i8 %54, i8* %58, align 1
  %59 = load i32, i32* %8, align 4
  %60 = add nsw i32 %59, 1
  store i32 %60, i32* %8, align 4
  br label %115

61:                                               ; preds = %36
  %62 = load i8*, i8** %1, align 8
  %63 = load i32, i32* %7, align 4
  %64 = sext i32 %63 to i64
  %65 = getelementptr inbounds i8, i8* %62, i64 %64
  store i8* %65, i8** %4, align 8
  %66 = load i32, i32* %7, align 4
  store i32 %66, i32* %14, align 4
  store i32 1, i32* %12, align 4
  %67 = load i8*, i8** %5, align 8
  %68 = load i32, i32* %8, align 4
  %69 = sext i32 %68 to i64
  %70 = getelementptr inbounds i8, i8* %67, i64 %69
  store i8 0, i8* %70, align 1
  store i32 0, i32* %8, align 4
  %71 = load i8*, i8** %5, align 8
  %72 = load i8*, i8** %2, align 8
  %73 = call i32 @strcmp(i8* %71, i8* %72) #5
  %74 = icmp ne i32 %73, 0
  br i1 %74, label %110, label %75

75:                                               ; preds = %61
  %76 = load i8*, i8** %6, align 8
  %77 = load i8*, i8** %4, align 8
  %78 = call i8* @strcpy(i8* %76, i8* %77) #4
  store i32 0, i32* %11, align 4
  br label %79

79:                                               ; preds = %96, %75
  %80 = load i32, i32* %11, align 4
  %81 = load i32, i32* %10, align 4
  %82 = icmp slt i32 %80, %81
  br i1 %82, label %83, label %99

83:                                               ; preds = %79
  %84 = load i8*, i8** %3, align 8
  %85 = load i32, i32* %11, align 4
  %86 = sext i32 %85 to i64
  %87 = getelementptr inbounds i8, i8* %84, i64 %86
  %88 = load i8, i8* %87, align 1
  %89 = load i8*, i8** %1, align 8
  %90 = load i32, i32* %13, align 4
  %91 = sext i32 %90 to i64
  %92 = getelementptr inbounds i8, i8* %89, i64 %91
  %93 = load i32, i32* %11, align 4
  %94 = sext i32 %93 to i64
  %95 = getelementptr inbounds i8, i8* %92, i64 %94
  store i8 %88, i8* %95, align 1
  br label %96

96:                                               ; preds = %83
  %97 = load i32, i32* %11, align 4
  %98 = add nsw i32 %97, 1
  store i32 %98, i32* %11, align 4
  br label %79

99:                                               ; preds = %79
  %100 = load i8*, i8** %1, align 8
  %101 = load i32, i32* %13, align 4
  %102 = sext i32 %101 to i64
  %103 = getelementptr inbounds i8, i8* %100, i64 %102
  %104 = load i32, i32* %11, align 4
  %105 = sext i32 %104 to i64
  %106 = getelementptr inbounds i8, i8* %103, i64 %105
  store i8 0, i8* %106, align 1
  %107 = load i8*, i8** %1, align 8
  %108 = load i8*, i8** %6, align 8
  %109 = call i8* @strcat(i8* %107, i8* %108) #4
  br label %110

110:                                              ; preds = %99, %61
  %111 = load i8*, i8** %5, align 8
  %112 = call i8* @strcpy(i8* %111, i8* getelementptr inbounds ([2 x i8], [2 x i8]* @.str, i64 0, i64 0)) #4
  %113 = load i8*, i8** %6, align 8
  %114 = call i8* @strcpy(i8* %113, i8* getelementptr inbounds ([2 x i8], [2 x i8]* @.str, i64 0, i64 0)) #4
  br label %115

115:                                              ; preds = %110, %49
  br label %116

116:                                              ; preds = %115
  %117 = load i32, i32* %7, align 4
  %118 = add nsw i32 %117, 1
  store i32 %118, i32* %7, align 4
  br label %32

119:                                              ; preds = %32
  %120 = load i8*, i8** %5, align 8
  %121 = load i32, i32* %8, align 4
  %122 = sext i32 %121 to i64
  %123 = getelementptr inbounds i8, i8* %120, i64 %122
  store i8 0, i8* %123, align 1
  %124 = load i8*, i8** %5, align 8
  %125 = load i8*, i8** %2, align 8
  %126 = call i32 @strcmp(i8* %124, i8* %125) #5
  %127 = icmp ne i32 %126, 0
  br i1 %127, label %157, label %128

128:                                              ; preds = %119
  store i32 0, i32* %11, align 4
  br label %129

129:                                              ; preds = %146, %128
  %130 = load i32, i32* %11, align 4
  %131 = load i32, i32* %10, align 4
  %132 = icmp slt i32 %130, %131
  br i1 %132, label %133, label %149

133:                                              ; preds = %129
  %134 = load i8*, i8** %3, align 8
  %135 = load i32, i32* %11, align 4
  %136 = sext i32 %135 to i64
  %137 = getelementptr inbounds i8, i8* %134, i64 %136
  %138 = load i8, i8* %137, align 1
  %139 = load i8*, i8** %1, align 8
  %140 = load i32, i32* %13, align 4
  %141 = sext i32 %140 to i64
  %142 = getelementptr inbounds i8, i8* %139, i64 %141
  %143 = load i32, i32* %11, align 4
  %144 = sext i32 %143 to i64
  %145 = getelementptr inbounds i8, i8* %142, i64 %144
  store i8 %138, i8* %145, align 1
  br label %146

146:                                              ; preds = %133
  %147 = load i32, i32* %11, align 4
  %148 = add nsw i32 %147, 1
  store i32 %148, i32* %11, align 4
  br label %129

149:                                              ; preds = %129
  %150 = load i8*, i8** %1, align 8
  %151 = load i32, i32* %13, align 4
  %152 = sext i32 %151 to i64
  %153 = getelementptr inbounds i8, i8* %150, i64 %152
  %154 = load i32, i32* %11, align 4
  %155 = sext i32 %154 to i64
  %156 = getelementptr inbounds i8, i8* %153, i64 %155
  store i8 0, i8* %156, align 1
  br label %157

157:                                              ; preds = %149, %119
  %158 = load i8*, i8** %1, align 8
  %159 = call i32 @puts(i8* %158)
  ret void
}

; Function Attrs: nounwind
declare dso_local noalias i8* @malloc(i64) #1

declare dso_local i32 @gets(...) #2

; Function Attrs: nounwind readonly
declare dso_local i64 @strlen(i8*) #3

; Function Attrs: nounwind readonly
declare dso_local i32 @strcmp(i8*, i8*) #3

; Function Attrs: nounwind
declare dso_local i8* @strcpy(i8*, i8*) #1

; Function Attrs: nounwind
declare dso_local i8* @strcat(i8*, i8*) #1

declare dso_local i32 @puts(i8*) #2


!llvm.module.flags = !{!0}
!llvm.ident = !{!1}

!0 = !{i32 1, !"wchar_size", i32 4}
!1 = !{!"clang version 10.0.0-4ubuntu1 "}
